target datalayout = "e-m:e-p270:32:32-p271:32:32-p272:64:64-i64:64-i128:128-f80:128-n8:16:32:64-S128"
target triple = "x86_64-pc-linux-gnu"

%struct.mbedtls_asn1_buf = type { i32, i64, ptr }

@.str = private unnamed_addr constant [119 x i8] c"generated/home/dtcxzyw/WorkSpace/Projects/compilers/llvm-opt-benchmark/bench/lief/bench_build/mbed_src/library/pkcs7.c\00", align 1

; Function Attrs: inlinehint nounwind uwtable
define internal i32 @mbedtls_error_add(i32 noundef %0, i32 noundef %1, ptr noundef %2, i32 noundef %3) #6 {
  %5 = alloca i32, align 4
  %6 = alloca i32, align 4
  %7 = alloca ptr, align 8
  %8 = alloca i32, align 4
  store i32 %0, ptr %5, align 4, !tbaa !12
  store i32 %1, ptr %6, align 4, !tbaa !12
  store ptr %2, ptr %7, align 8, !tbaa !8
  store i32 %3, ptr %8, align 4, !tbaa !12
  %9 = load i32, ptr %5, align 4, !tbaa !12
  %10 = load i32, ptr %6, align 4, !tbaa !12
  %11 = add nsw i32 %9, %10
  ret i32 %11
}

; Function Attrs: nounwind uwtable
define internal i32 @pkcs7_get_content_info_type(ptr noundef %0, ptr noundef %1, ptr noundef %2, ptr noundef %3) #0 {
  %5 = alloca i32, align 4
  %6 = alloca ptr, align 8
  %7 = alloca ptr, align 8
  %8 = alloca ptr, align 8
  %9 = alloca ptr, align 8
  %10 = alloca i64, align 8
  %11 = alloca i32, align 4
  %12 = alloca ptr, align 8
  %13 = alloca i32, align 4
  store ptr %0, ptr %6, align 8, !tbaa !35
  store ptr %1, ptr %7, align 8, !tbaa !8
  store ptr %2, ptr %8, align 8, !tbaa !35
  store ptr %3, ptr %9, align 8, !tbaa !68
  call void @llvm.lifetime.start.p0(i64 8, ptr %10) #9
  store i64 0, ptr %10, align 8, !tbaa !10
  call void @llvm.lifetime.start.p0(i64 4, ptr %11) #9
  store i32 -110, ptr %11, align 4, !tbaa !12
  call void @llvm.lifetime.start.p0(i64 8, ptr %12) #9
  %14 = load ptr, ptr %6, align 8, !tbaa !35
  %15 = load ptr, ptr %14, align 8, !tbaa !8
  store ptr %15, ptr %12, align 8, !tbaa !8
  %16 = load ptr, ptr %6, align 8, !tbaa !35
  %17 = load ptr, ptr %7, align 8, !tbaa !8
  %18 = call i32 @mbedtls_asn1_get_tag(ptr noundef %16, ptr noundef %17, ptr noundef %10, i32 noundef 48)
  store i32 %18, ptr %11, align 4, !tbaa !12
  %19 = load i32, ptr %11, align 4, !tbaa !12
  %20 = icmp ne i32 %19, 0
  br i1 %20, label %21, label %26

21:                                               ; preds = %4
  %22 = load ptr, ptr %12, align 8, !tbaa !8
  %23 = load ptr, ptr %6, align 8, !tbaa !35
  store ptr %22, ptr %23, align 8, !tbaa !8
  %24 = load i32, ptr %11, align 4, !tbaa !12
  %25 = call i32 @mbedtls_error_add(i32 noundef -21632, i32 noundef %24, ptr noundef @.str, i32 noundef 96)
  store i32 %25, ptr %5, align 4
  store i32 1, ptr %13, align 4
  br label %58

26:                                               ; preds = %4
  %27 = load ptr, ptr %6, align 8, !tbaa !35
  %28 = load ptr, ptr %27, align 8, !tbaa !8
  %29 = load i64, ptr %10, align 8, !tbaa !10
  %30 = getelementptr inbounds nuw i8, ptr %28, i64 %29
  %31 = load ptr, ptr %8, align 8, !tbaa !35
  store ptr %30, ptr %31, align 8, !tbaa !8
  %32 = load ptr, ptr %6, align 8, !tbaa !35
  %33 = load ptr, ptr %8, align 8, !tbaa !35
  %34 = load ptr, ptr %33, align 8, !tbaa !8
  %35 = call i32 @mbedtls_asn1_get_tag(ptr noundef %32, ptr noundef %34, ptr noundef %10, i32 noundef 6)
  store i32 %35, ptr %11, align 4, !tbaa !12
  %36 = load i32, ptr %11, align 4, !tbaa !12
  %37 = icmp ne i32 %36, 0
  br i1 %37, label %38, label %43

38:                                               ; preds = %26
  %39 = load ptr, ptr %12, align 8, !tbaa !8
  %40 = load ptr, ptr %6, align 8, !tbaa !35
  store ptr %39, ptr %40, align 8, !tbaa !8
  %41 = load i32, ptr %11, align 4, !tbaa !12
  %42 = call i32 @mbedtls_error_add(i32 noundef -21632, i32 noundef %41, ptr noundef @.str, i32 noundef 102)
  store i32 %42, ptr %5, align 4
  store i32 1, ptr %13, align 4
  br label %58

43:                                               ; preds = %26
  %44 = load ptr, ptr %9, align 8, !tbaa !68
  %45 = getelementptr inbounds nuw %struct.mbedtls_asn1_buf, ptr %44, i32 0, i32 0
  store i32 6, ptr %45, align 8, !tbaa !70
  %46 = load i64, ptr %10, align 8, !tbaa !10
  %47 = load ptr, ptr %9, align 8, !tbaa !68
  %48 = getelementptr inbounds nuw %struct.mbedtls_asn1_buf, ptr %47, i32 0, i32 1
  store i64 %46, ptr %48, align 8, !tbaa !42
  %49 = load ptr, ptr %6, align 8, !tbaa !35
  %50 = load ptr, ptr %49, align 8, !tbaa !8
  %51 = load ptr, ptr %9, align 8, !tbaa !68
  %52 = getelementptr inbounds nuw %struct.mbedtls_asn1_buf, ptr %51, i32 0, i32 2
  store ptr %50, ptr %52, align 8, !tbaa !43
  %53 = load i64, ptr %10, align 8, !tbaa !10
  %54 = load ptr, ptr %6, align 8, !tbaa !35
  %55 = load ptr, ptr %54, align 8, !tbaa !8
  %56 = getelementptr inbounds nuw i8, ptr %55, i64 %53
  store ptr %56, ptr %54, align 8, !tbaa !8
  %57 = load i32, ptr %11, align 4, !tbaa !12
  store i32 %57, ptr %5, align 4
  store i32 1, ptr %13, align 4
  br label %58

58:                                               ; preds = %43, %38, %21
  call void @llvm.lifetime.end.p0(i64 8, ptr %12) #9
  call void @llvm.lifetime.end.p0(i64 4, ptr %11) #9
  call void @llvm.lifetime.end.p0(i64 8, ptr %10) #9
  %59 = load i32, ptr %5, align 4
  ret i32 %59
}