; Function Attrs: nounwind uwtable
define internal fastcc range(i32 -2147483648, 2147462016) i32 @pkcs7_get_content_info_type(ptr noundef nonnull %0, ptr noundef %1, ptr noundef nonnull writeonly captures(none) %2, ptr noundef nonnull writeonly captures(none) %3) unnamed_addr #2 {
  %5 = alloca i64, align 8
  call void @llvm.lifetime.start.p0(i64 8, ptr nonnull %5) #9
  store i64 0, ptr %5, align 8, !tbaa !3
  %6 = load ptr, ptr %0, align 8, !tbaa !7
  %7 = call i32 @mbedtls_asn1_get_tag(ptr noundef nonnull %0, ptr noundef %1, ptr noundef nonnull %5, i32 noundef 48) #9
  %.not = icmp eq i32 %7, 0
  br i1 %.not, label %10, label %8

8:                                                ; preds = %4
  store ptr %6, ptr %0, align 8, !tbaa !7
  %9 = add nsw i32 %7, -21632
  br label %23

10:                                               ; preds = %4
  %11 = load ptr, ptr %0, align 8, !tbaa !7
  %12 = load i64, ptr %5, align 8, !tbaa !3
  %13 = getelementptr inbounds nuw i8, ptr %11, i64 %12
  store ptr %13, ptr %2, align 8, !tbaa !7
  %14 = call i32 @mbedtls_asn1_get_tag(ptr noundef nonnull %0, ptr noundef %13, ptr noundef nonnull %5, i32 noundef 6) #9
  %.not23 = icmp eq i32 %14, 0
  br i1 %.not23, label %17, label %15

15:                                               ; preds = %10
  store ptr %6, ptr %0, align 8, !tbaa !7
  %16 = add nsw i32 %14, -21632
  br label %23

17:                                               ; preds = %10
  store i32 6, ptr %3, align 8, !tbaa !52
  %18 = load i64, ptr %5, align 8, !tbaa !3
  %19 = getelementptr inbounds nuw i8, ptr %3, i64 8
  store i64 %18, ptr %19, align 8, !tbaa !33
  %20 = load ptr, ptr %0, align 8, !tbaa !7
  %21 = getelementptr inbounds nuw i8, ptr %3, i64 16
  store ptr %20, ptr %21, align 8, !tbaa !34
  %22 = getelementptr inbounds nuw i8, ptr %20, i64 %18
  store ptr %22, ptr %0, align 8, !tbaa !7
  br label %23

23:                                               ; preds = %17, %15, %8
  %.0 = phi i32 [ %9, %8 ], [ %16, %15 ], [ 0, %17 ]
  call void @llvm.lifetime.end.p0(i64 8, ptr nonnull %5) #9
  ret i32 %.0
}